Certificate:
    Data:
        Version: 3 (0x2)
        Serial Number: 2 (0x2)
    Signature Algorithm: sha256WithRSAEncryption
        Issuer: C=CN, ST=BJ, L=BJ, O=youyuan, OU=yunwei, CN=youyuan CA/name=EasyRSA/emailAddress=yunwei@youyuan.com
        Validity
            Not Before: Jun 28 05:58:20 2017 GMT
            Not After : Jun 26 05:58:20 2027 GMT
        Subject: C=CN, ST=BJ, L=BJ, O=youyuan, OU=yunwei, CN=client-idc/name=EasyRSA/emailAddress=yunwei@youyuan.com
        Subject Public Key Info:
            Public Key Algorithm: rsaEncryption
                Public-Key: (2048 bit)
                Modulus:
                    00:a6:e3:da:79:75:52:2f:4b:d3:cb:2f:74:a1:1f:
                    1e:57:93:2a:73:d4:44:24:df:8f:86:e1:2c:38:b3:
                    3d:54:2b:82:2d:97:eb:e5:19:a9:93:7b:bb:e9:42:
                    ee:0b:c9:e5:d3:09:96:46:6c:54:98:00:7d:da:d1:
                    6a:91:ee:3b:36:58:8e:92:54:53:4d:c2:8f:28:36:
                    0a:29:a9:6a:ed:44:2b:55:34:80:fc:56:46:01:ac:
                    06:86:8a:ce:07:1a:56:38:a4:f5:f0:61:80:7a:40:
                    95:a7:b4:ba:35:0a:ca:d8:1b:85:74:be:78:5f:cc:
                    c2:c9:60:94:8a:63:61:57:0f:49:32:7e:25:44:74:
                    9e:06:b5:4c:46:3c:e1:fe:4a:1c:5c:d1:30:03:40:
                    03:9b:ac:14:8f:71:76:93:05:50:92:fa:be:fe:82:
                    d5:be:4f:2d:48:a9:e7:82:ad:68:3b:1b:8d:34:b2:
                    4a:a4:6b:02:15:dd:4a:e4:f4:f4:d6:37:1a:82:39:
                    d0:0f:d8:4d:93:d8:95:e0:dd:4c:bc:4b:96:e9:92:
                    45:b5:98:c1:53:1d:b9:95:cb:7b:00:12:78:f5:44:
                    01:9e:f1:7f:83:42:64:7f:f2:de:7f:b2:22:83:38:
                    81:35:27:e4:68:bd:44:ad:90:99:89:b9:a3:cf:25:
                    41:c3
                Exponent: 65537 (0x10001)
        X509v3 extensions:
            X509v3 Basic Constraints: 
                CA:FALSE
            Netscape Comment: 
                Easy-RSA Generated Certificate
            X509v3 Subject Key Identifier: 
                C7:C4:8B:1F:76:59:EA:DA:78:FB:CC:83:6A:D2:B2:34:5A:60:01:53
            X509v3 Authority Key Identifier: 
                keyid:54:46:57:0E:14:67:C2:91:D2:86:F8:44:50:69:3C:32:A5:96:46:AE
                DirName:/C=CN/ST=BJ/L=BJ/O=youyuan/OU=yunwei/CN=youyuan CA/name=EasyRSA/emailAddress=yunwei@youyuan.com
                serial:84:CE:DC:51:44:93:D4:5B

            X509v3 Extended Key Usage: 
                TLS Web Client Authentication
            X509v3 Key Usage: 
                Digital Signature
    Signature Algorithm: sha256WithRSAEncryption
         c6:34:c5:cf:3e:df:fc:e2:60:98:f7:61:17:80:5d:2d:91:03:
         59:49:da:48:c9:f9:2f:c5:fc:c5:66:cf:46:87:ca:04:87:0f:
         cd:3f:8a:30:1c:a0:c4:20:0a:60:86:0e:26:94:fb:e5:35:6f:
         97:00:04:b9:86:88:74:b4:e1:8d:f3:2d:f7:6c:14:39:d2:ee:
         f9:61:10:34:06:9d:96:8c:9b:fa:15:b0:bd:ad:f5:5e:ea:a8:
         20:22:8c:4a:86:e2:1b:dc:be:a2:73:6d:41:b0:5e:90:45:6a:
         97:7b:94:85:34:3b:1a:88:13:bd:65:98:66:18:d9:13:00:3c:
         74:26:a0:da:28:8c:9c:8f:09:45:e4:60:03:87:b8:fc:40:84:
         66:ec:35:cc:a7:d6:88:e5:fa:1a:dd:3b:73:c5:6e:52:81:66:
         01:84:85:f3:98:4e:c0:fd:fd:28:32:4b:ae:48:96:c2:60:27:
         6f:d9:08:4b:e3:f2:66:da:b8:41:65:09:5a:19:b7:97:a5:99:
         b5:59:9a:7d:f5:94:e8:00:74:88:a4:3f:83:2c:12:49:30:f7:
         f1:6f:d3:e7:09:16:50:20:49:de:f6:18:f3:a6:d1:9e:da:8c:
         3c:10:73:5e:ec:e8:f1:7a:26:6e:17:dd:73:4f:ec:7c:b0:a2:
         ef:e6:9b:29
-----BEGIN CERTIFICATE-----
MIIE8jCCA9qgAwIBAgIBAjANBgkqhkiG9w0BAQsFADCBlDELMAkGA1UEBhMCQ04x
CzAJBgNVBAgTAkJKMQswCQYDVQQHEwJCSjEQMA4GA1UEChMHeW91eXVhbjEPMA0G
A1UECxMGeXVud2VpMRMwEQYDVQQDEwp5b3V5dWFuIENBMRAwDgYDVQQpEwdFYXN5
UlNBMSEwHwYJKoZIhvcNAQkBFhJ5dW53ZWlAeW91eXVhbi5jb20wHhcNMTcwNjI4
MDU1ODIwWhcNMjcwNjI2MDU1ODIwWjCBlDELMAkGA1UEBhMCQ04xCzAJBgNVBAgT
AkJKMQswCQYDVQQHEwJCSjEQMA4GA1UEChMHeW91eXVhbjEPMA0GA1UECxMGeXVu
d2VpMRMwEQYDVQQDEwpjbGllbnQtaWRjMRAwDgYDVQQpEwdFYXN5UlNBMSEwHwYJ
KoZIhvcNAQkBFhJ5dW53ZWlAeW91eXVhbi5jb20wggEiMA0GCSqGSIb3DQEBAQUA
A4IBDwAwggEKAoIBAQCm49p5dVIvS9PLL3ShHx5Xkypz1EQk34+G4Sw4sz1UK4It
l+vlGamTe7vpQu4LyeXTCZZGbFSYAH3a0WqR7js2WI6SVFNNwo8oNgopqWrtRCtV
NID8VkYBrAaGis4HGlY4pPXwYYB6QJWntLo1CsrYG4V0vnhfzMLJYJSKY2FXD0ky
fiVEdJ4GtUxGPOH+Shxc0TADQAObrBSPcXaTBVCS+r7+gtW+Ty1IqeeCrWg7G400
skqkawIV3Urk9PTWNxqCOdAP2E2T2JXg3Uy8S5bpkkW1mMFTHbmVy3sAEnj1RAGe
8X+DQmR/8t5/siKDOIE1J+RovUStkJmJuaPPJUHDAgMBAAGjggFLMIIBRzAJBgNV
HRMEAjAAMC0GCWCGSAGG+EIBDQQgFh5FYXN5LVJTQSBHZW5lcmF0ZWQgQ2VydGlm
aWNhdGUwHQYDVR0OBBYEFMfEix92WeraePvMg2rSsjRaYAFTMIHJBgNVHSMEgcEw
gb6AFFRGVw4UZ8KR0ob4RFBpPDKllkauoYGapIGXMIGUMQswCQYDVQQGEwJDTjEL
MAkGA1UECBMCQkoxCzAJBgNVBAcTAkJKMRAwDgYDVQQKEwd5b3V5dWFuMQ8wDQYD
VQQLEwZ5dW53ZWkxEzARBgNVBAMTCnlvdXl1YW4gQ0ExEDAOBgNVBCkTB0Vhc3lS
U0ExITAfBgkqhkiG9w0BCQEWEnl1bndlaUB5b3V5dWFuLmNvbYIJAITO3FFEk9Rb
MBMGA1UdJQQMMAoGCCsGAQUFBwMCMAsGA1UdDwQEAwIHgDANBgkqhkiG9w0BAQsF
AAOCAQEAxjTFzz7f/OJgmPdhF4BdLZEDWUnaSMn5L8X8xWbPRofKBIcPzT+KMByg
xCAKYIYOJpT75TVvlwAEuYaIdLThjfMt92wUOdLu+WEQNAadloyb+hWwva31Xuqo
ICKMSobiG9y+onNtQbBekEVql3uUhTQ7GogTvWWYZhjZEwA8dCag2iiMnI8JReRg
A4e4/ECEZuw1zKfWiOX6Gt07c8VuUoFmAYSF85hOwP39KDJLrkiWwmAnb9kIS+Py
Ztq4QWUJWhm3l6WZtVmaffWU6AB0iKQ/gywSSTD38W/T5wkWUCBJ3vYY86bRntqM
PBBzXuzo8Xombhfdc0/sfLCi7+abKQ==
-----END CERTIFICATE-----
