Certificate:
    Data:
        Version: 3 (0x2)
        Serial Number:
            47:b6:14:4f:6d:25:2a:ff:80:4c:3b:fc:e3:88:32:e0
    Signature Algorithm: sha256WithRSAEncryption
        Issuer: CN=Easy-RSA CA
        Validity
            Not Before: Jul  6 06:12:41 2020 GMT
            Not After : Oct  9 06:12:41 2022 GMT
        Subject: CN=yajiada
        Subject Public Key Info:
            Public Key Algorithm: rsaEncryption
                Public-Key: (2048 bit)
                Modulus:
                    00:e0:c6:e1:e7:63:ea:bc:5b:cd:67:04:af:ae:f5:
                    52:7f:b8:8b:f8:5e:64:16:6d:2f:d5:a2:75:17:34:
                    e3:57:10:19:fd:e0:cc:55:0a:86:e4:78:45:51:e6:
                    2c:b3:83:47:77:2f:16:f9:e4:21:4a:a3:c7:14:32:
                    c4:17:fb:47:14:1d:d9:d0:8f:01:04:cf:2a:ab:c0:
                    9d:76:51:34:a3:f3:34:f4:24:9b:e6:c0:37:bc:c1:
                    45:0e:2e:9e:9a:ea:5a:f4:43:6a:60:18:fb:21:8b:
                    ba:ba:05:ee:5f:03:e6:3a:e5:84:b8:74:40:76:38:
                    bd:7a:68:f7:78:a3:45:eb:40:34:32:28:75:a4:50:
                    49:0d:64:a7:c8:e5:16:da:99:b9:35:2f:63:ef:87:
                    c8:b6:c5:87:9b:c0:e1:89:d1:bd:9d:fb:5e:2c:ac:
                    3f:c6:16:ae:87:6e:a2:f9:aa:cf:e2:cf:a0:a6:d9:
                    52:1f:4a:43:cb:7a:2b:e6:d8:d1:ff:64:2a:cd:5b:
                    c0:5e:97:17:15:cd:5d:a5:6d:44:a4:da:da:f4:10:
                    04:3b:44:b3:9c:91:e1:f0:e1:af:05:2b:13:85:66:
                    dd:64:01:7e:48:d1:2d:9f:c6:ec:2b:6f:8d:50:68:
                    77:b5:3d:cf:61:fb:19:d4:22:52:f9:0f:b1:ce:cf:
                    90:27
                Exponent: 65537 (0x10001)
        X509v3 extensions:
            X509v3 Basic Constraints: 
                CA:FALSE
            X509v3 Subject Key Identifier: 
                94:4C:51:CC:32:51:7A:38:19:8E:AB:9C:9D:8B:BC:6D:95:D5:0D:9A
            X509v3 Authority Key Identifier: 
                keyid:6E:13:79:60:88:F5:51:F2:01:5B:5B:10:74:16:C5:E0:29:40:D1:98
                DirName:/CN=Easy-RSA CA
                serial:B2:E9:44:3E:1A:B7:38:B3

            X509v3 Extended Key Usage: 
                TLS Web Client Authentication
            X509v3 Key Usage: 
                Digital Signature
    Signature Algorithm: sha256WithRSAEncryption
         84:56:bc:25:86:b6:03:38:a7:7a:3d:1f:bd:f8:90:93:7e:fc:
         12:e8:86:d1:97:c1:e9:45:4f:39:5e:e1:35:0e:5a:30:03:29:
         9b:0d:6d:0a:bc:5a:47:12:ad:20:3d:24:95:a7:99:99:ff:4b:
         49:77:a4:42:b4:52:42:12:6a:5e:91:6b:41:b1:cb:dd:80:58:
         5e:3d:e4:e8:11:d1:2c:45:07:fa:c0:8c:55:45:fb:72:c1:c6:
         bc:fd:71:73:a6:d1:59:30:c2:da:ab:a4:18:b8:c2:7d:a1:1e:
         a2:c2:38:aa:2a:14:3c:47:da:03:a0:74:ca:af:ca:db:5d:5e:
         fc:2c:63:53:eb:e6:08:a8:89:10:4d:4c:f9:80:a8:e4:8c:2c:
         3d:f0:a3:74:c5:f3:4a:7c:fd:3a:20:ae:27:24:15:e2:3f:a9:
         4d:2a:e9:63:0d:68:92:f6:a3:da:83:11:42:af:30:bb:0b:97:
         73:98:84:be:80:cd:a2:26:80:3c:02:cc:64:0b:da:71:0e:fc:
         c7:37:90:da:8f:ae:40:9e:2f:1e:7d:34:cd:47:ed:6c:ff:91:
         c0:c6:af:3d:e1:91:81:6a:9a:36:87:21:c2:72:38:af:c3:f3:
         5b:e9:bc:71:55:c1:76:9f:b3:68:14:b3:13:d2:98:8b:55:1f:
         cd:f4:80:b3
-----BEGIN CERTIFICATE-----
MIIDSjCCAjKgAwIBAgIQR7YUT20lKv+ATDv844gy4DANBgkqhkiG9w0BAQsFADAW
MRQwEgYDVQQDDAtFYXN5LVJTQSBDQTAeFw0yMDA3MDYwNjEyNDFaFw0yMjEwMDkw
NjEyNDFaMBIxEDAOBgNVBAMMB3lhamlhZGEwggEiMA0GCSqGSIb3DQEBAQUAA4IB
DwAwggEKAoIBAQDgxuHnY+q8W81nBK+u9VJ/uIv4XmQWbS/VonUXNONXEBn94MxV
CobkeEVR5iyzg0d3Lxb55CFKo8cUMsQX+0cUHdnQjwEEzyqrwJ12UTSj8zT0JJvm
wDe8wUUOLp6a6lr0Q2pgGPshi7q6Be5fA+Y65YS4dEB2OL16aPd4o0XrQDQyKHWk
UEkNZKfI5Rbambk1L2Pvh8i2xYebwOGJ0b2d+14srD/GFq6HbqL5qs/iz6Cm2VIf
SkPLeivm2NH/ZCrNW8BelxcVzV2lbUSk2tr0EAQ7RLOckeHw4a8FKxOFZt1kAX5I
0S2fxuwrb41QaHe1Pc9h+xnUIlL5D7HOz5AnAgMBAAGjgZcwgZQwCQYDVR0TBAIw
ADAdBgNVHQ4EFgQUlExRzDJRejgZjqucnYu8bZXVDZowRgYDVR0jBD8wPYAUbhN5
YIj1UfIBW1sQdBbF4ClA0ZihGqQYMBYxFDASBgNVBAMMC0Vhc3ktUlNBIENBggkA
sulEPhq3OLMwEwYDVR0lBAwwCgYIKwYBBQUHAwIwCwYDVR0PBAQDAgeAMA0GCSqG
SIb3DQEBCwUAA4IBAQCEVrwlhrYDOKd6PR+9+JCTfvwS6IbRl8HpRU85XuE1Dlow
AymbDW0KvFpHEq0gPSSVp5mZ/0tJd6RCtFJCEmpekWtBscvdgFhePeToEdEsRQf6
wIxVRftywca8/XFzptFZMMLaq6QYuMJ9oR6iwjiqKhQ8R9oDoHTKr8rbXV78LGNT
6+YIqIkQTUz5gKjkjCw98KN0xfNKfP06IK4nJBXiP6lNKuljDWiS9qPagxFCrzC7
C5dzmIS+gM2iJoA8AsxkC9pxDvzHN5Daj65Ani8efTTNR+1s/5HAxq894ZGBapo2
hyHCcjivw/Nb6bxxVcF2n7NoFLMT0piLVR/N9ICz
-----END CERTIFICATE-----
